target datalayout = "e-m:e-p270:32:32-p271:32:32-p272:64:64-i64:64-i128:128-f80:128-n8:16:32:64-S128"
target triple = "x86_64-pc-linux-gnu"

@VP8FTransform = hidden global ptr null, align 8

; Function Attrs: nounwind uwtable
define internal void @FTransform2_C(ptr noalias noundef %0, ptr noalias noundef %1, ptr noalias noundef %2) #0 {
  %4 = alloca ptr, align 8
  %5 = alloca ptr, align 8
  %6 = alloca ptr, align 8
  store ptr %0, ptr %4, align 8, !tbaa !18
  store ptr %1, ptr %5, align 8, !tbaa !18
  store ptr %2, ptr %6, align 8, !tbaa !20
  %7 = load ptr, ptr @VP8FTransform, align 8, !tbaa !8
  %8 = load ptr, ptr %4, align 8, !tbaa !18
  %9 = load ptr, ptr %5, align 8, !tbaa !18
  %10 = load ptr, ptr %6, align 8, !tbaa !20
  call void %7(ptr noundef %8, ptr noundef %9, ptr noundef %10)
  %11 = load ptr, ptr @VP8FTransform, align 8, !tbaa !8
  %12 = load ptr, ptr %4, align 8, !tbaa !18
  %13 = getelementptr inbounds i8, ptr %12, i64 4
  %14 = load ptr, ptr %5, align 8, !tbaa !18
  %15 = getelementptr inbounds i8, ptr %14, i64 4
  %16 = load ptr, ptr %6, align 8, !tbaa !20
  %17 = getelementptr inbounds i16, ptr %16, i64 16
  call void %11(ptr noundef %13, ptr noundef %15, ptr noundef %17)
  ret void
}