; Function Attrs: nounwind uwtable
define internal void @FTransform2_C(ptr noalias noundef %0, ptr noalias noundef %1, ptr noalias noundef %2) #2 {
  %4 = load ptr, ptr @VP8FTransform, align 8, !tbaa !12
  tail call void %4(ptr noundef %0, ptr noundef %1, ptr noundef %2) #15
  %5 = load ptr, ptr @VP8FTransform, align 8, !tbaa !12
  %6 = getelementptr inbounds nuw i8, ptr %0, i64 4
  %7 = getelementptr inbounds nuw i8, ptr %1, i64 4
  %8 = getelementptr inbounds nuw i8, ptr %2, i64 32
  tail call void %5(ptr noundef nonnull %6, ptr noundef nonnull %7, ptr noundef nonnull %8) #15
  ret void
}